target datalayout = "e-m:e-p270:32:32-p271:32:32-p272:64:64-i64:64-i128:128-f80:128-n8:16:32:64-S128"
target triple = "x86_64-pc-linux-gnu"

%struct.color_t = type { i16, i16, i16 }
%struct.preference = type { ptr, ptr, ptr, i32, i32, i32, %union.anon, %union.anon.0, %union.anon.1, %union.anon.2, %struct.pref_custom_cbs, ptr, ptr }
%union.anon = type { ptr }
%union.anon.0 = type { ptr }
%union.anon.1 = type { ptr }
%union.anon.2 = type { %struct.anon }
%struct.anon = type { ptr, i8 }
%struct.pref_custom_cbs = type { ptr, ptr, ptr, ptr, ptr, ptr, ptr }

@.str = private unnamed_addr constant [5 x i8] c"Epan\00", align 1
@.str.1 = private unnamed_addr constant [13 x i8] c"epan/prefs.c\00", align 1
@.str.8 = private unnamed_addr constant [31 x i8] c"assertion \22not reached\22 failed\00", align 1
@__func__.prefs_set_color_value = private unnamed_addr constant [22 x i8] c"prefs_set_color_value\00", align 1

; Function Attrs: null_pointer_is_valid sspstrong uwtable
define zeroext i1 @prefs_set_color_value(ptr noundef %0, i48 %1, i32 noundef %2) #1 {
  %4 = alloca %struct.color_t, align 2
  %5 = alloca ptr, align 8
  %6 = alloca i32, align 4
  %7 = alloca i8, align 1
  store i48 %1, ptr %4, align 2
  store ptr %0, ptr %5, align 8
  store i32 %2, ptr %6, align 4
  call void @llvm.lifetime.start.p0(i64 1, ptr %7) #17
  store i8 0, ptr %7, align 1
  %8 = load i32, ptr %6, align 4
  switch i32 %8, label %115 [
    i32 0, label %9
    i32 1, label %43
    i32 2, label %77
  ]

9:                                                ; preds = %3
  %10 = load ptr, ptr %5, align 8
  %11 = getelementptr inbounds nuw %struct.preference, ptr %10, i32 0, i32 8
  %12 = getelementptr inbounds nuw %struct.color_t, ptr %11, i32 0, i32 0
  %13 = load i16, ptr %12, align 8
  %14 = zext i16 %13 to i32
  %15 = getelementptr inbounds nuw %struct.color_t, ptr %4, i32 0, i32 0
  %16 = load i16, ptr %15, align 2
  %17 = zext i16 %16 to i32
  %18 = icmp ne i32 %14, %17
  br i1 %18, label %39, label %19

19:                                               ; preds = %9
  %20 = load ptr, ptr %5, align 8
  %21 = getelementptr inbounds nuw %struct.preference, ptr %20, i32 0, i32 8
  %22 = getelementptr inbounds nuw %struct.color_t, ptr %21, i32 0, i32 1
  %23 = load i16, ptr %22, align 2
  %24 = zext i16 %23 to i32
  %25 = getelementptr inbounds nuw %struct.color_t, ptr %4, i32 0, i32 1
  %26 = load i16, ptr %25, align 2
  %27 = zext i16 %26 to i32
  %28 = icmp ne i32 %24, %27
  br i1 %28, label %39, label %29

29:                                               ; preds = %19
  %30 = load ptr, ptr %5, align 8
  %31 = getelementptr inbounds nuw %struct.preference, ptr %30, i32 0, i32 8
  %32 = getelementptr inbounds nuw %struct.color_t, ptr %31, i32 0, i32 2
  %33 = load i16, ptr %32, align 4
  %34 = zext i16 %33 to i32
  %35 = getelementptr inbounds nuw %struct.color_t, ptr %4, i32 0, i32 2
  %36 = load i16, ptr %35, align 2
  %37 = zext i16 %36 to i32
  %38 = icmp ne i32 %34, %37
  br i1 %38, label %39, label %42

39:                                               ; preds = %29, %19, %9
  store i8 1, ptr %7, align 1
  %40 = load ptr, ptr %5, align 8
  %41 = getelementptr inbounds nuw %struct.preference, ptr %40, i32 0, i32 8
  call void @llvm.memcpy.p0.p0.i64(ptr align 8 %41, ptr align 2 %4, i64 6, i1 false)
  br label %42

42:                                               ; preds = %39, %29
  br label %116

43:                                               ; preds = %3
  %44 = load ptr, ptr %5, align 8
  %45 = getelementptr inbounds nuw %struct.preference, ptr %44, i32 0, i32 7
  %46 = getelementptr inbounds nuw %struct.color_t, ptr %45, i32 0, i32 0
  %47 = load i16, ptr %46, align 8
  %48 = zext i16 %47 to i32
  %49 = getelementptr inbounds nuw %struct.color_t, ptr %4, i32 0, i32 0
  %50 = load i16, ptr %49, align 2
  %51 = zext i16 %50 to i32
  %52 = icmp ne i32 %48, %51
  br i1 %52, label %73, label %53

53:                                               ; preds = %43
  %54 = load ptr, ptr %5, align 8
  %55 = getelementptr inbounds nuw %struct.preference, ptr %54, i32 0, i32 7
  %56 = getelementptr inbounds nuw %struct.color_t, ptr %55, i32 0, i32 1
  %57 = load i16, ptr %56, align 2
  %58 = zext i16 %57 to i32
  %59 = getelementptr inbounds nuw %struct.color_t, ptr %4, i32 0, i32 1
  %60 = load i16, ptr %59, align 2
  %61 = zext i16 %60 to i32
  %62 = icmp ne i32 %58, %61
  br i1 %62, label %73, label %63

63:                                               ; preds = %53
  %64 = load ptr, ptr %5, align 8
  %65 = getelementptr inbounds nuw %struct.preference, ptr %64, i32 0, i32 7
  %66 = getelementptr inbounds nuw %struct.color_t, ptr %65, i32 0, i32 2
  %67 = load i16, ptr %66, align 4
  %68 = zext i16 %67 to i32
  %69 = getelementptr inbounds nuw %struct.color_t, ptr %4, i32 0, i32 2
  %70 = load i16, ptr %69, align 2
  %71 = zext i16 %70 to i32
  %72 = icmp ne i32 %68, %71
  br i1 %72, label %73, label %76

73:                                               ; preds = %63, %53, %43
  store i8 1, ptr %7, align 1
  %74 = load ptr, ptr %5, align 8
  %75 = getelementptr inbounds nuw %struct.preference, ptr %74, i32 0, i32 7
  call void @llvm.memcpy.p0.p0.i64(ptr align 8 %75, ptr align 2 %4, i64 6, i1 false)
  br label %76

76:                                               ; preds = %73, %63
  br label %116

77:                                               ; preds = %3
  %78 = load ptr, ptr %5, align 8
  %79 = getelementptr inbounds nuw %struct.preference, ptr %78, i32 0, i32 6
  %80 = load ptr, ptr %79, align 8
  %81 = getelementptr inbounds nuw %struct.color_t, ptr %80, i32 0, i32 0
  %82 = load i16, ptr %81, align 2
  %83 = zext i16 %82 to i32
  %84 = getelementptr inbounds nuw %struct.color_t, ptr %4, i32 0, i32 0
  %85 = load i16, ptr %84, align 2
  %86 = zext i16 %85 to i32
  %87 = icmp ne i32 %83, %86
  br i1 %87, label %110, label %88

88:                                               ; preds = %77
  %89 = load ptr, ptr %5, align 8
  %90 = getelementptr inbounds nuw %struct.preference, ptr %89, i32 0, i32 6
  %91 = load ptr, ptr %90, align 8
  %92 = getelementptr inbounds nuw %struct.color_t, ptr %91, i32 0, i32 1
  %93 = load i16, ptr %92, align 2
  %94 = zext i16 %93 to i32
  %95 = getelementptr inbounds nuw %struct.color_t, ptr %4, i32 0, i32 1
  %96 = load i16, ptr %95, align 2
  %97 = zext i16 %96 to i32
  %98 = icmp ne i32 %94, %97
  br i1 %98, label %110, label %99

99:                                               ; preds = %88
  %100 = load ptr, ptr %5, align 8
  %101 = getelementptr inbounds nuw %struct.preference, ptr %100, i32 0, i32 6
  %102 = load ptr, ptr %101, align 8
  %103 = getelementptr inbounds nuw %struct.color_t, ptr %102, i32 0, i32 2
  %104 = load i16, ptr %103, align 2
  %105 = zext i16 %104 to i32
  %106 = getelementptr inbounds nuw %struct.color_t, ptr %4, i32 0, i32 2
  %107 = load i16, ptr %106, align 2
  %108 = zext i16 %107 to i32
  %109 = icmp ne i32 %105, %108
  br i1 %109, label %110, label %114

110:                                              ; preds = %99, %88, %77
  store i8 1, ptr %7, align 1
  %111 = load ptr, ptr %5, align 8
  %112 = getelementptr inbounds nuw %struct.preference, ptr %111, i32 0, i32 6
  %113 = load ptr, ptr %112, align 8
  call void @llvm.memcpy.p0.p0.i64(ptr align 2 %113, ptr align 2 %4, i64 6, i1 false)
  br label %114

114:                                              ; preds = %110, %99
  br label %116

115:                                              ; preds = %3
  call void (ptr, i32, ptr, i64, ptr, ptr, ...) @ws_log_fatal_full(ptr noundef @.str, i32 noundef 7, ptr noundef @.str.1, i64 noundef 1894, ptr noundef @__func__.prefs_set_color_value, ptr noundef @.str.8) #18
  unreachable

116:                                              ; preds = %114, %76, %42
  %117 = load i8, ptr %7, align 1, !range !6, !noundef !7
  %118 = trunc i8 %117 to i1
  call void @llvm.lifetime.end.p0(i64 1, ptr %7) #17
  ret i1 %118
}