; Function Attrs: null_pointer_is_valid sspstrong uwtable
define noundef zeroext i1 @prefs_set_color_value(ptr noundef captures(none) %0, i48 %1, i32 noundef %2) local_unnamed_addr #1 {
  %.sroa.0.0.extract.trunc = trunc i48 %1 to i16
  %.sroa.7.0.extract.shift = lshr i48 %1, 16
  %.sroa.7.0.extract.trunc = trunc i48 %.sroa.7.0.extract.shift to i16
  %.sroa.10.0.extract.shift = lshr i48 %1, 32
  %.sroa.10.0.extract.trunc = trunc nuw i48 %.sroa.10.0.extract.shift to i16
  switch i32 %2, label %41 [
    i32 0, label %4
    i32 1, label %16
    i32 2, label %28
  ]

4:                                                ; preds = %3
  %5 = getelementptr inbounds nuw i8, ptr %0, i64 56
  %6 = load i16, ptr %5, align 8
  %.not34 = icmp eq i16 %6, %.sroa.0.0.extract.trunc
  br i1 %.not34, label %7, label %15

7:                                                ; preds = %4
  %8 = getelementptr inbounds nuw i8, ptr %0, i64 58
  %9 = load i16, ptr %8, align 2
  %.not35 = icmp eq i16 %9, %.sroa.7.0.extract.trunc
  br i1 %.not35, label %10, label %15

10:                                               ; preds = %7
  %11 = getelementptr inbounds nuw i8, ptr %0, i64 60
  %12 = load i16, ptr %11, align 4
  %13 = zext i16 %12 to i32
  %14 = trunc nuw nsw i48 %.sroa.10.0.extract.shift to i32
  %.not36 = icmp eq i32 %13, %14
  br i1 %.not36, label %42, label %15

15:                                               ; preds = %10, %7, %4
  store i16 %.sroa.0.0.extract.trunc, ptr %5, align 8
  %.sroa.7.0..sroa_idx = getelementptr inbounds nuw i8, ptr %0, i64 58
  store i16 %.sroa.7.0.extract.trunc, ptr %.sroa.7.0..sroa_idx, align 2
  %.sroa.10.0..sroa_idx = getelementptr inbounds nuw i8, ptr %0, i64 60
  store i16 %.sroa.10.0.extract.trunc, ptr %.sroa.10.0..sroa_idx, align 4
  br label %42

16:                                               ; preds = %3
  %17 = getelementptr inbounds nuw i8, ptr %0, i64 48
  %18 = load i16, ptr %17, align 8
  %.not31 = icmp eq i16 %18, %.sroa.0.0.extract.trunc
  br i1 %.not31, label %19, label %27

19:                                               ; preds = %16
  %20 = getelementptr inbounds nuw i8, ptr %0, i64 50
  %21 = load i16, ptr %20, align 2
  %.not32 = icmp eq i16 %21, %.sroa.7.0.extract.trunc
  br i1 %.not32, label %22, label %27

22:                                               ; preds = %19
  %23 = getelementptr inbounds nuw i8, ptr %0, i64 52
  %24 = load i16, ptr %23, align 4
  %25 = zext i16 %24 to i32
  %26 = trunc nuw nsw i48 %.sroa.10.0.extract.shift to i32
  %.not33 = icmp eq i32 %25, %26
  br i1 %.not33, label %42, label %27

27:                                               ; preds = %22, %19, %16
  store i16 %.sroa.0.0.extract.trunc, ptr %17, align 8
  %.sroa.7.0..sroa_idx17 = getelementptr inbounds nuw i8, ptr %0, i64 50
  store i16 %.sroa.7.0.extract.trunc, ptr %.sroa.7.0..sroa_idx17, align 2
  %.sroa.10.0..sroa_idx23 = getelementptr inbounds nuw i8, ptr %0, i64 52
  store i16 %.sroa.10.0.extract.trunc, ptr %.sroa.10.0..sroa_idx23, align 4
  br label %42

28:                                               ; preds = %3
  %29 = getelementptr inbounds nuw i8, ptr %0, i64 40
  %30 = load ptr, ptr %29, align 8
  %31 = load i16, ptr %30, align 2
  %.not = icmp eq i16 %31, %.sroa.0.0.extract.trunc
  br i1 %.not, label %32, label %40

32:                                               ; preds = %28
  %33 = getelementptr inbounds nuw i8, ptr %30, i64 2
  %34 = load i16, ptr %33, align 2
  %.not29 = icmp eq i16 %34, %.sroa.7.0.extract.trunc
  br i1 %.not29, label %35, label %40

35:                                               ; preds = %32
  %36 = getelementptr inbounds nuw i8, ptr %30, i64 4
  %37 = load i16, ptr %36, align 2
  %38 = zext i16 %37 to i32
  %39 = trunc nuw nsw i48 %.sroa.10.0.extract.shift to i32
  %.not30 = icmp eq i32 %38, %39
  br i1 %.not30, label %42, label %40

40:                                               ; preds = %35, %32, %28
  store i16 %.sroa.0.0.extract.trunc, ptr %30, align 2
  %.sroa.7.0..sroa_idx19 = getelementptr inbounds nuw i8, ptr %30, i64 2
  store i16 %.sroa.7.0.extract.trunc, ptr %.sroa.7.0..sroa_idx19, align 2
  %.sroa.10.0..sroa_idx25 = getelementptr inbounds nuw i8, ptr %30, i64 4
  store i16 %.sroa.10.0.extract.trunc, ptr %.sroa.10.0..sroa_idx25, align 2
  br label %42

41:                                               ; preds = %3
  tail call void (ptr, i32, ptr, i64, ptr, ptr, ...) @ws_log_fatal_full(ptr noundef nonnull @.str, i32 noundef 7, ptr noundef nonnull @.str.1, i64 noundef 1894, ptr noundef nonnull @__func__.prefs_set_color_value, ptr noundef nonnull @.str.8) #26
  unreachable

42:                                               ; preds = %35, %40, %22, %27, %10, %15
  %.0 = phi i1 [ true, %40 ], [ false, %35 ], [ true, %27 ], [ false, %22 ], [ true, %15 ], [ false, %10 ]
  ret i1 %.0
}